; Function Attrs: nounwind uwtable
define zeroext range(i8 0, 2) i8 @l_Lean_Linter_MissingDocs_declModifiersPubNoDoc(ptr noundef %0) local_unnamed_addr #0 {
  %2 = tail call ptr @l_Lean_Syntax_getArg(ptr noundef %0, ptr noundef nonnull inttoptr (i64 5 to ptr)) #5
  %3 = tail call ptr @l_Lean_Syntax_getArg(ptr noundef %2, ptr noundef nonnull inttoptr (i64 1 to ptr)) #5
  %4 = ptrtoint ptr %2 to i64
  %5 = and i64 %4, 1
  %.not = icmp eq i64 %5, 0
  br i1 %.not, label %6, label %lean_dec.exit26

6:                                                ; preds = %1
  %7 = load i32, ptr %2, align 4, !tbaa !8
  %8 = icmp sgt i32 %7, 1
  br i1 %8, label %9, label %11, !prof !11

9:                                                ; preds = %6
  %10 = add nsw i32 %7, -1
  store i32 %10, ptr %2, align 4, !tbaa !8
  br label %lean_dec.exit26

11:                                               ; preds = %6
  %.not.i = icmp eq i32 %7, 0
  br i1 %.not.i, label %lean_dec.exit26, label %12

12:                                               ; preds = %11
  tail call void @lean_dec_ref_cold(ptr noundef nonnull %2) #5
  br label %lean_dec.exit26

lean_dec.exit26:                                  ; preds = %12, %11, %9, %1
  %13 = tail call ptr @l_Lean_Syntax_getKind(ptr noundef %3) #5
  %14 = load ptr, ptr @l_Lean_Linter_MissingDocs_declModifiersPubNoDoc___closed__3, align 8, !tbaa !4
  %15 = tail call zeroext i8 @lean_name_eq(ptr noundef %13, ptr noundef %14) #5
  %16 = ptrtoint ptr %13 to i64
  %17 = and i64 %16, 1
  %.not33 = icmp eq i64 %17, 0
  br i1 %.not33, label %18, label %lean_dec.exit25

18:                                               ; preds = %lean_dec.exit26
  %19 = load i32, ptr %13, align 4, !tbaa !8
  %20 = icmp sgt i32 %19, 1
  br i1 %20, label %21, label %23, !prof !11

21:                                               ; preds = %18
  %22 = add nsw i32 %19, -1
  store i32 %22, ptr %13, align 4, !tbaa !8
  br label %lean_dec.exit25

23:                                               ; preds = %18
  %.not.i27 = icmp eq i32 %19, 0
  br i1 %.not.i27, label %lean_dec.exit25, label %24

24:                                               ; preds = %23
  tail call void @lean_dec_ref_cold(ptr noundef nonnull %13) #5
  br label %lean_dec.exit25

lean_dec.exit25:                                  ; preds = %24, %23, %21, %lean_dec.exit26
  %25 = icmp eq i8 %15, 0
  br i1 %25, label %26, label %51

26:                                               ; preds = %lean_dec.exit25
  %27 = tail call ptr @l_Lean_Syntax_getArg(ptr noundef %0, ptr noundef nonnull inttoptr (i64 1 to ptr)) #5
  %28 = tail call zeroext i8 @l_Lean_Syntax_isNone(ptr noundef %27) #5
  %29 = ptrtoint ptr %27 to i64
  %30 = and i64 %29, 1
  %.not34 = icmp eq i64 %30, 0
  br i1 %.not34, label %31, label %lean_dec.exit24

31:                                               ; preds = %26
  %32 = load i32, ptr %27, align 4, !tbaa !8
  %33 = icmp sgt i32 %32, 1
  br i1 %33, label %34, label %36, !prof !11

34:                                               ; preds = %31
  %35 = add nsw i32 %32, -1
  store i32 %35, ptr %27, align 4, !tbaa !8
  br label %lean_dec.exit24

36:                                               ; preds = %31
  %.not.i29 = icmp eq i32 %32, 0
  br i1 %.not.i29, label %lean_dec.exit24, label %37

37:                                               ; preds = %36
  tail call void @lean_dec_ref_cold(ptr noundef nonnull %27) #5
  br label %lean_dec.exit24

lean_dec.exit24:                                  ; preds = %37, %36, %34, %26
  %38 = icmp eq i8 %28, 0
  br i1 %38, label %51, label %39

39:                                               ; preds = %lean_dec.exit24
  %40 = tail call ptr @l_Lean_Syntax_getArg(ptr noundef %0, ptr noundef nonnull inttoptr (i64 3 to ptr)) #5
  %41 = tail call zeroext i8 @l_Lean_Linter_MissingDocs_hasInheritDoc(ptr noundef %40)
  %42 = ptrtoint ptr %40 to i64
  %43 = and i64 %42, 1
  %.not35 = icmp eq i64 %43, 0
  br i1 %.not35, label %44, label %lean_dec.exit

44:                                               ; preds = %39
  %45 = load i32, ptr %40, align 4, !tbaa !8
  %46 = icmp sgt i32 %45, 1
  br i1 %46, label %47, label %49, !prof !11

47:                                               ; preds = %44
  %48 = add nsw i32 %45, -1
  store i32 %48, ptr %40, align 4, !tbaa !8
  br label %lean_dec.exit

49:                                               ; preds = %44
  %.not.i31 = icmp eq i32 %45, 0
  br i1 %.not.i31, label %lean_dec.exit, label %50

50:                                               ; preds = %49
  tail call void @lean_dec_ref_cold(ptr noundef nonnull %40) #5
  br label %lean_dec.exit

lean_dec.exit:                                    ; preds = %50, %49, %47, %39
  %. = xor i8 %41, 1
  br label %51

51:                                               ; preds = %lean_dec.exit25, %lean_dec.exit, %lean_dec.exit24
  %.2 = phi i8 [ %., %lean_dec.exit ], [ 0, %lean_dec.exit24 ], [ 0, %lean_dec.exit25 ]
  ret i8 %.2
}